target datalayout = "e-m:e-p270:32:32-p271:32:32-p272:64:64-i64:64-i128:128-f80:128-n8:16:32:64-S128"
target triple = "x86_64-unknown-linux-gnu"

%struct.AddressSpace = type { %struct.rcu_head, ptr, ptr, ptr, i32, i32, ptr, %union.anon.7, %union.anon.8 }
%struct.rcu_head = type { ptr, ptr }
%union.anon.7 = type { %struct.QTailQLink }
%struct.QTailQLink = type { ptr, ptr }
%union.anon.8 = type { %struct.QTailQLink }
%struct.AHCIState = type { ptr, ptr, %struct.AHCIControlRegs, %struct.MemoryRegion, %struct.MemoryRegion, i32, i32, i32, ptr, ptr }
%struct.AHCIControlRegs = type { i32, i32, i32, i32, i32 }
%struct.MemoryRegion = type { %struct.Object, i8, i8, i8, i8, i8, i8, i8, i8, i8, i8, ptr, ptr, ptr, ptr, ptr, ptr, i32, i128, i64, ptr, i64, i8, i8, i8, i8, i8, ptr, i64, i32, %union.anon, %union.anon.0, %union.anon.1, ptr, i32, ptr, ptr, i8 }
%struct.Object = type { ptr, ptr, ptr, i32, ptr }
%union.anon = type { %struct.QTailQLink }
%union.anon.0 = type { %struct.QTailQLink }
%union.anon.1 = type { %struct.QTailQLink }
%struct.ResettableState = type { i32, i8, i8 }
%struct.MemReentrancyGuard = type { i8 }
%struct.DeviceState = type { %struct.Object, ptr, ptr, i8, i8, i64, ptr, i32, i8, ptr, %struct.NamedGPIOListHead, %struct.NamedClockListHead, %struct.BusStateHead, i32, i32, i32, %struct.ResettableState, ptr, %struct.MemReentrancyGuard }
%struct.NamedGPIOListHead = type { ptr }
%struct.NamedClockListHead = type { ptr }
%struct.BusStateHead = type { ptr }
%struct.SysbusAHCIState = type { %struct.SysBusDevice, %struct.AHCIState, i32 }
%struct.SysBusDevice = type { %struct.DeviceState, i32, [32 x %struct.anon.9], i32, [32 x i32] }
%struct.anon.9 = type { i64, ptr }

@.str.230 = private unnamed_addr constant [12 x i8] c"sysbus-ahci\00", align 1
@.str.232 = private unnamed_addr constant [100 x i8] c"/home/dtcxzyw/WorkSpace/Projects/compilers/llvm-opt-benchmark/bench/qemu/qemu/include/hw/ide/ahci.h\00", align 1
@__func__.SYSBUS_AHCI = private unnamed_addr constant [12 x i8] c"SYSBUS_AHCI\00", align 1
@address_space_memory = external global %struct.AddressSpace, align 8

; Function Attrs: nounwind sspstrong uwtable
define internal ptr @SYSBUS_AHCI(ptr noundef %obj) #0 {
entry:
  %obj.addr = alloca ptr, align 8
  store ptr %obj, ptr %obj.addr, align 8
  %0 = load ptr, ptr %obj.addr, align 8
  %call = call ptr @object_dynamic_cast_assert(ptr noundef %0, ptr noundef @.str.230, ptr noundef @.str.232, i32 noundef 62, ptr noundef @__func__.SYSBUS_AHCI)
  ret ptr %call
}

; Function Attrs: nounwind sspstrong uwtable
define internal void @sysbus_ahci_realize(ptr noundef %dev, ptr noundef %errp) #0 {
entry:
  %dev.addr = alloca ptr, align 8
  %errp.addr = alloca ptr, align 8
  %s = alloca ptr, align 8
  store ptr %dev, ptr %dev.addr, align 8
  store ptr %errp, ptr %errp.addr, align 8
  %0 = load ptr, ptr %dev.addr, align 8
  %call = call ptr @SYSBUS_AHCI(ptr noundef %0)
  store ptr %call, ptr %s, align 8
  %1 = load ptr, ptr %s, align 8
  %ahci = getelementptr inbounds %struct.SysbusAHCIState, ptr %1, i32 0, i32 1
  %2 = load ptr, ptr %dev.addr, align 8
  %3 = load ptr, ptr %s, align 8
  %num_ports = getelementptr inbounds %struct.SysbusAHCIState, ptr %3, i32 0, i32 2
  %4 = load i32, ptr %num_ports, align 16
  call void @ahci_realize(ptr noundef %ahci, ptr noundef %2, ptr noundef @address_space_memory, i32 noundef %4)
  ret void
}