; Function Attrs: nounwind sspstrong uwtable
define internal void @sysbus_ahci_realize(ptr noundef %dev, ptr readnone captures(none) %errp) #0 {
entry:
  %call.i = tail call ptr @object_dynamic_cast_assert(ptr noundef %dev, ptr noundef nonnull @.str.230, ptr noundef nonnull @.str.232, i32 noundef 62, ptr noundef nonnull @__func__.SYSBUS_AHCI) #12
  %ahci = getelementptr inbounds nuw i8, ptr %call.i, i64 816
  %num_ports = getelementptr inbounds nuw i8, ptr %call.i, i64 1440
  %0 = load i32, ptr %num_ports, align 16
  tail call void @ahci_realize(ptr noundef nonnull %ahci, ptr noundef %dev, ptr noundef nonnull @address_space_memory, i32 noundef %0)
  ret void
}